"File: TOUCH.C       Assembler  Version HGASM0202      Page 1


   1  0000              ; Generated by holtek-gcc v3.19, Mon Aug 01 12:38:30 2022
   2  0000              ; 
   3  0000              ; Configuration:
   4  0000              ;       without long instruction
   5  0000              ;       Single ROM, Multi-RAM
   6  0000              ;       bits_per_rom_unit:16
   7  0000              ;       with mp1
   8  0000              ;       with tbhp, address(0x9)
   9  0000              ;          Use tabrd-const
  10  0000              ;       
  11  0000              ;       
  12  0000              ;       
  13  0000              ; use 'tabrdc' instead of 'tabrd'
  14  0000              ;       
  15  0000              
  16  0000              #pragma translator "holtek-gcc 4.6.4" "3.19" "build 20130711"
  17  0000              ; Rebuild 718
  18  0000              
  19  0000              ir equ [2]
  20  0000              mp equ [3]
  21  0000              sbp equ [1]
  22  0000              acc equ [5]
  23  0000              bp equ [4]
  24  0000              tblp equ [7]
  25  0000              tbhp equ [9]
  26  0000              status equ [10]
  27  0000              c equ [10].0
  28  0000              ac equ [10].1
  29  0000              z equ [10].2
  30  0000              ov equ [10].3
  31  0000              intc equ [11]
  32  0000              
  33  0000              extern ra:byte
  34  0000              extern rb:byte
  35  0000              extern rc:byte
  36  0000              extern rd:byte
  37  0000              extern re:byte
  38  0000              extern rf:byte
  39  0000              extern rg:byte
  40  0000              extern rh:byte
  41  0000              extern _Crom2Prom:near
  42  0000              extern _Crom2PromNext:near
  43  0000              
  44  0000              RAMBANK 0 @HCCINIT, @HCCINIT0
  45  0000              
  46  0000              RAMBANK 0 @BITDATASEC, @BITDATASEC1
  47  0000              @HCCINIT	.section 'data'
  48  0000              @HCCINIT0	.section 'data'
  49  0000              @BITDATASEC	 .section 'data'
  50  0000              @BITDATASEC1	 .section 'data'
  51  0000              
  52  0000              #pragma debug scope 1 1
  53  0000              	extern __DELAY3:near
  54  0000              	extern __DELAYX3:near
  55  0000              	extern __DELAYX6:near
  56  0000              	extern __DELAYY5:near
  57  0000              	extern __DELAYY3:near
  58  0000              	extern _builtin_holtek_delay_2:byte
  59  0000              ___pb equ [32]
"File: TOUCH.ASM     Assembler  Version HGASM0202      Page 2

  60  0000              public _touch_read
  61  0000              #pragma debug scope 2 1

  10  0000              #line 10 "C:\Users\barby\Desktop\Company_work\Ronic\jaroo_KPG_BS83B08A_2T\jaroo_KPG_BS83B08A_2T_CODE\LIB\FUN\TOUCH.C"
  10  0000              _touch_read .section 'code'
  10  0000              _touch_read proc
  10  0000              public _touch_read_2
  10  0000  0005[           local _touch_read_2 db 5 dup(?)	; 3,2
            00
            ]
  10  0000  0080     E  	mov ra,a
  10  0001  0080     R  	mov _touch_read_2[3],a
  10  0002              #pragma debug variable 8 2 _touch_read_2+3 "num_touch"
  10  0002              #pragma debug variable 8 2 _touch_read_2+0 "temp_touch"
  10  0002              #pragma debug pointer 42 8 2
  10  0002              #pragma debug pointer 42 8 2
  10  0002              #pragma debug variable 42 2 _touch_read_2+1 "temp_timer"
  12  0002              #line 12 "C:\Users\barby\Desktop\Company_work\Ronic\jaroo_KPG_BS83B08A_2T\jaroo_KPG_BS83B08A_2T_CODE\LIB\FUN\TOUCH.C"
  12  0002  0700     E  	mov a,_DATA_BUF[0]
  12  0003  0080     E  	mov rb,a
  12  0004  1F00     E  	clr rc
  12  0005  1400     E  	inca ra
  12  0006  2800     R  	jmp _LI1
  12  0007              _LI2:
  12  0007  340A        	clr c
  12  0008  3C00     E  	sz rc.7
  12  0009  300A        	set c
  12  000A  1B80     E  	rrc rc
  12  000B  1B80     E  	rrc rb
  12  000C              _LI1:
  12  000C  1785        	sdz acc
  12  000D  2800     R  	jmp _LI2
  12  000E  3800     E  	snz rb.0
  12  000F  2800     R  	jmp _L2
  14  0010              #line 14 "C:\Users\barby\Desktop\Company_work\Ronic\jaroo_KPG_BS83B08A_2T\jaroo_KPG_BS83B08A_2T_CODE\LIB\FUN\TOUCH.C"
  14  0010  0700     E  	mov a,ra
  14  0011  0A07        	sub a,7
  14  0012  390A        	snz z
  14  0013  2800     R  	jmp _L3
  14  0014  3720        	clr [32].6
  14  0015  2800     R  	jmp _L4
  14  0016              _L3:
  15  0016              #line 15 "C:\Users\barby\Desktop\Company_work\Ronic\jaroo_KPG_BS83B08A_2T\jaroo_KPG_BS83B08A_2T_CODE\LIB\FUN\TOUCH.C"
  15  0016  0700     R  	mov a,_touch_read_2[3]
  15  0017  0A05        	sub a,5
  15  0018  390A        	snz z
  15  0019  2800     R  	jmp _L4
  15  001A  3620        	clr [32].4
  15  001B              _L4:
  17  001B              #line 17 "C:\Users\barby\Desktop\Company_work\Ronic\jaroo_KPG_BS83B08A_2T\jaroo_KPG_BS83B08A_2T_CODE\LIB\FUN\TOUCH.C"
  17  001B  0700     R  	mov a,_touch_read_2[0]
  17  001C  0300     R  	add a,_touch_read_2[1]
  17  001D  0083        	mov mp,a
  17  001E  1F05        	clr acc
  17  001F  1300     R  	adc a,_touch_read_2[2]
  17  0020  0081        	mov sbp,a
  17  0021  2000     E  	call _Crom2Prom
  17  0022  0080     R  	mov _touch_read_2[4],a
  17  0023  1080     R  	sz _touch_read_2[4]
  17  0024  2800     R  	jmp _L6
"File: TOUCH.C       Assembler  Version HGASM0202      Page 3

  19  0025              #line 19 "C:\Users\barby\Desktop\Company_work\Ronic\jaroo_KPG_BS83B08A_2T\jaroo_KPG_BS83B08A_2T_CODE\LIB\FUN\TOUCH.C"
  19  0025  0701        	mov a,sbp
  19  0026  0084        	mov bp,a
  19  0027  0FC8        	mov a,200
  19  0028  0082        	mov ir,a
  20  0029              #line 20 "C:\Users\barby\Desktop\Company_work\Ronic\jaroo_KPG_BS83B08A_2T\jaroo_KPG_BS83B08A_2T_CODE\LIB\FUN\TOUCH.C"
  20  0029  0F01        	mov a,1
  20  002A  0080     E  	mov ra,a
  20  002B  2800     R  	jmp _L7
  20  002C              _L2:
  25  002C              #line 25 "C:\Users\barby\Desktop\Company_work\Ronic\jaroo_KPG_BS83B08A_2T\jaroo_KPG_BS83B08A_2T_CODE\LIB\FUN\TOUCH.C"
  25  002C  0700     R  	mov a,_touch_read_2[0]
  25  002D  0300     R  	add a,_touch_read_2[1]
  25  002E  0083        	mov mp,a
  25  002F  1F05        	clr acc
  25  0030  1300     R  	adc a,_touch_read_2[2]
  25  0031  0081        	mov sbp,a
  25  0032  0701        	mov a,sbp
  25  0033  0084        	mov bp,a
  25  0034  0F00        	mov a,0
  25  0035  0082        	mov ir,a
  27  0036              #line 27 "C:\Users\barby\Desktop\Company_work\Ronic\jaroo_KPG_BS83B08A_2T\jaroo_KPG_BS83B08A_2T_CODE\LIB\FUN\TOUCH.C"
  27  0036  0700     R  	mov a,_touch_read_2[3]
  27  0037  0A07        	sub a,7
  27  0038  390A        	snz z
  27  0039  2800     R  	jmp _L8
  27  003A  3320        	set [32].6
  27  003B  2800     R  	jmp _L6
  27  003C              _L8:
  28  003C              #line 28 "C:\Users\barby\Desktop\Company_work\Ronic\jaroo_KPG_BS83B08A_2T\jaroo_KPG_BS83B08A_2T_CODE\LIB\FUN\TOUCH.C"
  28  003C  0700     R  	mov a,_touch_read_2[3]
  28  003D  0A05        	sub a,5
  28  003E  390A        	snz z
  28  003F  2800     R  	jmp _L6
  28  0040  3220        	set [32].4
  28  0041              _L6:
  32  0041              #line 32 "C:\Users\barby\Desktop\Company_work\Ronic\jaroo_KPG_BS83B08A_2T\jaroo_KPG_BS83B08A_2T_CODE\LIB\FUN\TOUCH.C"
  32  0041  0700     R  	mov a,_touch_read_2[0]
  32  0042  0300     R  	add a,_touch_read_2[1]
  32  0043  0083        	mov mp,a
  32  0044  1F05        	clr acc
  32  0045  1300     R  	adc a,_touch_read_2[2]
  32  0046  0081        	mov sbp,a
  32  0047  2000     E  	call _Crom2Prom
  32  0048  0080     E  	mov ra,a
  32  0049  1080     E  	sz ra
  32  004A  2800     R  	jmp _LI3
  32  004B  2800     R  	jmp _L10
  32  004C              _LI3:
  32  004C  1580     E  	dec ra
  32  004D  0701        	mov a,sbp
  32  004E  0084        	mov bp,a
  32  004F  0700     E  	mov a,ra
  32  0050  0082        	mov ir,a
  32  0051              _L10:
  34  0051              #line 34 "C:\Users\barby\Desktop\Company_work\Ronic\jaroo_KPG_BS83B08A_2T\jaroo_KPG_BS83B08A_2T_CODE\LIB\FUN\TOUCH.C"
  34  0051  1F00     E  	clr ra
  34  0052              _L7:
  36  0052              #line 36 "C:\Users\barby\Desktop\Company_work\Ronic\jaroo_KPG_BS83B08A_2T\jaroo_KPG_BS83B08A_2T_CODE\LIB\FUN\TOUCH.C"
  36  0052  0700     E  	mov a,ra
"File: TOUCH.C       Assembler  Version HGASM0202      Page 4

  36  0053  0003        	ret
  36  0054              _touch_read endp
  36  0054              #line 36 "C:\Users\barby\Desktop\Company_work\Ronic\jaroo_KPG_BS83B08A_2T\jaroo_KPG_BS83B08A_2T_CODE\LIB\FUN\TOUCH.C"
  36  0054              #pragma debug scope 1 1
  36  0054              ___pa equ [20]
  36  0054              public _touch_led_manage
  36  0054              #pragma debug scope 3 1
  38  0054              #line 38 "C:\Users\barby\Desktop\Company_work\Ronic\jaroo_KPG_BS83B08A_2T\jaroo_KPG_BS83B08A_2T_CODE\LIB\FUN\TOUCH.C"
  38  0000              _touch_led_manage .section 'code'
  38  0000              _touch_led_manage proc
  38  0000  00              local _touch_led_manage_2 db 1 dup(?)	; 0,1
  40  0001              #line 40 "C:\Users\barby\Desktop\Company_work\Ronic\jaroo_KPG_BS83B08A_2T\jaroo_KPG_BS83B08A_2T_CODE\LIB\FUN\TOUCH.C"
  40  0000  0F00     E  	mov a,low offset _touch
  40  0001  0080     R  	mov _touch_read_2[1],a
  40  0002  0F00     E  	mov a,high offset _touch
  40  0003  0080     R  	mov _touch_read_2[2],a
  40  0004  1F00     R  	clr _touch_read_2[0]
  40  0005  0F07        	mov a,7
  40  0006  2000     R  	call _touch_read
  40  0007  0080     E  	mov ra,a
  40  0008  1080     E  	sz ra
  40  0009  2800     R  	jmp _LI4
  40  000A  2800     R  	jmp _L13
  40  000B              _LI4:
  40  000B              #line 40 "C:\Users\barby\Desktop\Company_work\Ronic\jaroo_KPG_BS83B08A_2T\jaroo_KPG_BS83B08A_2T_CODE\LIB\FUN\TOUCH.C"
  40  000B  0700     E  	mov a,_jaroo[0]
  40  000C  0080     E  	mov ra,a
  40  000D  1080     E  	sz ra
  40  000E  2800     R  	jmp _LI5
  40  000F  2800     R  	jmp _L13
  40  0010              _LI5:
  40  0010  1500     E  	deca ra
  40  0011  0080     E  	mov _jaroo[0],a
  40  0012              _L13:
  41  0012              #line 41 "C:\Users\barby\Desktop\Company_work\Ronic\jaroo_KPG_BS83B08A_2T\jaroo_KPG_BS83B08A_2T_CODE\LIB\FUN\TOUCH.C"
  41  0012  0F00     E  	mov a,low offset _touch
  41  0013  0080     R  	mov _touch_read_2[1],a
  41  0014  0F00     E  	mov a,high offset _touch
  41  0015  0080     R  	mov _touch_read_2[2],a
  41  0016  0F01        	mov a,1
  41  0017  0080     R  	mov _touch_read_2[0],a
  41  0018  0F05        	mov a,5
  41  0019  2000     R  	call _touch_read
  41  001A  0080     E  	mov ra,a
  41  001B  1080     E  	sz ra
  41  001C  2800     R  	jmp _LI6
  41  001D  2800     R  	jmp _L14
  41  001E              _LI6:
  41  001E  0700     E  	mov a,_jaroo[0]
  41  001F  0080     E  	mov ra,a
  41  0020  0F03        	mov a,3
  41  0021  0200     E  	sub a,ra
  41  0022  380A        	snz c
  41  0023  2800     R  	jmp _L14
  41  0024  1400     E  	inca ra
  41  0025  0080     E  	mov _jaroo[0],a
  41  0026              _L14:
  43  0026              #line 43 "C:\Users\barby\Desktop\Company_work\Ronic\jaroo_KPG_BS83B08A_2T\jaroo_KPG_BS83B08A_2T_CODE\LIB\FUN\TOUCH.C"
  43  0026  35A0        	clr [32].3
  43  0027  3520        	clr [32].2
"File: TOUCH.C       Assembler  Version HGASM0202      Page 5

  43  0028  3420        	clr [32].0
  43  0029  34A0        	clr [32].1
  43  002A  3594        	clr [20].3
  44  002B              #line 44 "C:\Users\barby\Desktop\Company_work\Ronic\jaroo_KPG_BS83B08A_2T\jaroo_KPG_BS83B08A_2T_CODE\LIB\FUN\TOUCH.C"
  44  002B  0700     E  	mov a,_jaroo[0]
  44  002C  0080     R  	mov _touch_led_manage_2[0],a
  44  002D  1080     R  	sz _touch_led_manage_2[0]
  44  002E  2800     R  	jmp _L15
  44  002F  31A0        	set [32].3
  44  0030  0F14        	mov a,20
  44  0031  0080     E  	mov _jaroo[2],a
  44  0032  2800     R  	jmp _L12
  44  0033              _L15:
  45  0033              #line 45 "C:\Users\barby\Desktop\Company_work\Ronic\jaroo_KPG_BS83B08A_2T\jaroo_KPG_BS83B08A_2T_CODE\LIB\FUN\TOUCH.C"
  45  0033  1700     R  	sdza _touch_led_manage_2[0]
  45  0034  2800     R  	jmp _L17
  45  0035  3120        	set [32].2
  45  0036  0F1E        	mov a,30
  45  0037  0080     E  	mov _jaroo[2],a
  45  0038  2800     R  	jmp _L12
  45  0039              _L17:
  46  0039              #line 46 "C:\Users\barby\Desktop\Company_work\Ronic\jaroo_KPG_BS83B08A_2T\jaroo_KPG_BS83B08A_2T_CODE\LIB\FUN\TOUCH.C"
  46  0039  0700     R  	mov a,_touch_led_manage_2[0]
  46  003A  0A02        	sub a,2
  46  003B  390A        	snz z
  46  003C  2800     R  	jmp _L18
  46  003D  3020        	set [32].0
  46  003E  0F32        	mov a,50
  46  003F  0080     E  	mov _jaroo[2],a
  46  0040  2800     R  	jmp _L12
  46  0041              _L18:
  47  0041              #line 47 "C:\Users\barby\Desktop\Company_work\Ronic\jaroo_KPG_BS83B08A_2T\jaroo_KPG_BS83B08A_2T_CODE\LIB\FUN\TOUCH.C"
  47  0041  0700     R  	mov a,_touch_led_manage_2[0]
  47  0042  0A03        	sub a,3
  47  0043  390A        	snz z
  47  0044  2800     R  	jmp _L20
  47  0045  30A0        	set [32].1
  47  0046  0F46        	mov a,70
  47  0047  0080     E  	mov _jaroo[2],a
  47  0048  2800     R  	jmp _L12
  47  0049              _L20:
  48  0049              #line 48 "C:\Users\barby\Desktop\Company_work\Ronic\jaroo_KPG_BS83B08A_2T\jaroo_KPG_BS83B08A_2T_CODE\LIB\FUN\TOUCH.C"
  48  0049  0700     R  	mov a,_touch_led_manage_2[0]
  48  004A  0A04        	sub a,4
  48  004B  390A        	snz z
  48  004C  2800     R  	jmp _L12
  48  004D  3194        	set [20].3
  48  004E  0F55        	mov a,85
  48  004F  0080     E  	mov _jaroo[2],a
  48  0050              _L12:
  48  0050  0003        	ret
  48  0051              _touch_led_manage endp
  48  0051              #line 48 "C:\Users\barby\Desktop\Company_work\Ronic\jaroo_KPG_BS83B08A_2T\jaroo_KPG_BS83B08A_2T_CODE\LIB\FUN\TOUCH.C"
  48  0051              #pragma debug scope 1 1
  48  0051              #pragma debug struct_end
  48  0051              #pragma debug struct_end
  48  0051              #pragma debug union_end
  48  0051              #pragma debug union_end
  48  0051              #pragma debug variable 44 1 ___pa "__pa" 1
  48  0051              #pragma debug struct_end
"File: TOUCH.C       Assembler  Version HGASM0202      Page 6

  48  0051              #pragma debug struct_end
  48  0051              #pragma debug union_end
  48  0051              #pragma debug union_end
  48  0051              #pragma debug variable 46 1 ___pb "__pb" 1
  48  0051              
  48  0051              ; output external variables
  48  0051              extern _jaroo:byte
  48  0051              extern _touch:byte
  48  0051              extern _DATA_BUF:byte
  48  0051              
  48  0051              ; 
  48  0051              ; Generated by holtek-gcc v3.19, Mon Aug 01 12:38:30 2022
  48  0051              ; Rebuild 718
  48  0051              ; end of file


        0 Errors, 0