"File: USER_PROGRAM.C  Assembler  Version HGASM0202      Page 1


   1  0000              ; Generated by holtek-gcc v3.19, Mon Aug 01 12:38:27 2022
   2  0000              ; 
   3  0000              ; Configuration:
   4  0000              ;       without long instruction
   5  0000              ;       Single ROM, Multi-RAM
   6  0000              ;       bits_per_rom_unit:16
   7  0000              ;       with mp1
   8  0000              ;       with tbhp, address(0x9)
   9  0000              ;          Use tabrd-const
  10  0000              ;       
  11  0000              ;       
  12  0000              ;       
  13  0000              ; use 'tabrdc' instead of 'tabrd'
  14  0000              ;       
  15  0000              
  16  0000              #pragma translator "holtek-gcc 4.6.4" "3.19" "build 20130711"
  17  0000              ; Rebuild 718
  18  0000              
  19  0000              ir equ [2]
  20  0000              mp equ [3]
  21  0000              sbp equ [1]
  22  0000              acc equ [5]
  23  0000              bp equ [4]
  24  0000              tblp equ [7]
  25  0000              tbhp equ [9]
  26  0000              status equ [10]
  27  0000              c equ [10].0
  28  0000              ac equ [10].1
  29  0000              z equ [10].2
  30  0000              ov equ [10].3
  31  0000              intc equ [11]
  32  0000              
  33  0000              extern ra:byte
  34  0000              extern rb:byte
  35  0000              extern rc:byte
  36  0000              extern rd:byte
  37  0000              extern re:byte
  38  0000              extern rf:byte
  39  0000              extern rg:byte
  40  0000              extern rh:byte
  41  0000              extern _Crom2Prom:near
  42  0000              extern _Crom2PromNext:near
  43  0000              
  44  0000              RAMBANK 0 @HCCINIT, @HCCINIT0
  45  0000              
  46  0000              RAMBANK 0 @BITDATASEC, @BITDATASEC1
  47  0000              @HCCINIT	.section 'data'
  48  0000              @HCCINIT0	.section 'data'
  49  0000              @BITDATASEC	 .section 'data'
  50  0000              @BITDATASEC1	 .section 'data'
  51  0000              
  52  0000              #pragma debug scope 1 1
  53  0000              	extern __DELAY3:near
  54  0000              	extern __DELAYX3:near
  55  0000              	extern __DELAYX6:near
  56  0000              	extern __DELAYY5:near
  57  0000              	extern __DELAYY3:near
  58  0000              	extern _builtin_holtek_delay_2:byte
  59  0000              ___tmr equ [28]
"File: USER_PROGRAM.ASM  Assembler  Version HGASM0202      Page 2

  60  0000              ___tmrc equ [29]
  61  0000              ___pa equ [20]
  62  0000              public _timer
  63  0000              #pragma debug scope 2 1

  28  0000              #line 28 "c:\users\barby\desktop\company_work\ronic\jaroo_kpg_bs83b08a_2t\jaroo_kpg_bs83b08a_2t_code\20160607_libv413\USER_PROGRAM\USER_PROGRAM.C"
  28  0000              @timer_code .section at 12 'code'
  28  0000  0080     E  	mov r1,a
  28  0001  070A        	mov a,status
  28  0002  0080     E  	mov r2,a
  28  0003  2800     R  	jmp _timer
  28  0004              #pragma debug scope 1 1
  28  0004              @dummy12 endp
  28  0004              #pragma debug scope 3 1
  28  0000              _timer .section 'code'
  28  0000              _timer proc
  30  0000              #line 30 "c:\users\barby\desktop\company_work\ronic\jaroo_kpg_bs83b08a_2t\jaroo_kpg_bs83b08a_2t_code\20160607_libv413\USER_PROGRAM\USER_PROGRAM.C"
  30  0000  0FF9        	mov a,249
  30  0001  009C        	mov [28],a
  31  0002              #line 31 "c:\users\barby\desktop\company_work\ronic\jaroo_kpg_bs83b08a_2t\jaroo_kpg_bs83b08a_2t_code\20160607_libv413\USER_PROGRAM\USER_PROGRAM.C"
  31  0002  321D        	set [29].4
  33  0003              #line 33 "c:\users\barby\desktop\company_work\ronic\jaroo_kpg_bs83b08a_2t\jaroo_kpg_bs83b08a_2t_code\20160607_libv413\USER_PROGRAM\USER_PROGRAM.C"
  33  0003  0700     R  	mov a,_jaroo[3]
  33  0004  0080     E  	mov ra,a
  33  0005  0700     E  	mov a,ra
  33  0006  0A96        	sub a,150
  33  0007  390A        	snz z
  33  0008  2800     R  	jmp _L2
  34  0009              #line 34 "c:\users\barby\desktop\company_work\ronic\jaroo_kpg_bs83b08a_2t\jaroo_kpg_bs83b08a_2t_code\20160607_libv413\USER_PROGRAM\USER_PROGRAM.C"
  34  0009  0700     R  	mov a,_jaroo[1]
  34  000A  0080     E  	mov ra,a
  34  000B  0700     E  	mov a,ra
  34  000C  0080     E  	mov rd,a
  34  000D  1F00     E  	clr re
  34  000E  0700     R  	mov a,_jaroo[2]
  34  000F  0080     E  	mov rb,a
  34  0010  1F00     E  	clr rc
  34  0011  0F64        	mov a,100
  34  0012  0280     E  	subm a,rb
  34  0013  0F00        	mov a,0
  34  0014  1280     E  	sbcm a,rc
  34  0015  0700     E  	mov a,rd
  34  0016  0200     E  	sub a,rb
  34  0017  0700     E  	mov a,re
  34  0018  1200     E  	sbc a,rc
  34  0019  1185        	swap acc
  34  001A  040A        	xor a,status
  34  001B  3985        	snz acc.3
  34  001C  2800     R  	jmp _L3
  34  001D  1400     E  	inca ra
  34  001E  0080     R  	mov _jaroo[1],a
  34  001F  2800     R  	jmp _L4
  34  0020              _L3:
  35  0020              #line 35 "c:\users\barby\desktop\company_work\ronic\jaroo_kpg_bs83b08a_2t\jaroo_kpg_bs83b08a_2t_code\20160607_libv413\USER_PROGRAM\USER_PROGRAM.C"
  35  0020  0700     E  	mov a,rb
  35  0021  0200     E  	sub a,rd
  35  0022  0700     E  	mov a,rc
  35  0023  1200     E  	sbc a,re
  35  0024  1185        	swap acc
  35  0025  040A        	xor a,status
"File: USER_PROGRAM.C  Assembler  Version HGASM0202      Page 3

  35  0026  3985        	snz acc.3
  35  0027  2800     R  	jmp _L4
  35  0028  1500     E  	deca ra
  35  0029  0080     R  	mov _jaroo[1],a
  35  002A  2800     R  	jmp _L4
  35  002B              _L2:
  37  002B              #line 37 "c:\users\barby\desktop\company_work\ronic\jaroo_kpg_bs83b08a_2t\jaroo_kpg_bs83b08a_2t_code\20160607_libv413\USER_PROGRAM\USER_PROGRAM.C"
  37  002B  1400     E  	inca ra
  37  002C  0080     R  	mov _jaroo[3],a
  37  002D              _L4:
  39  002D              #line 39 "c:\users\barby\desktop\company_work\ronic\jaroo_kpg_bs83b08a_2t\jaroo_kpg_bs83b08a_2t_code\20160607_libv413\USER_PROGRAM\USER_PROGRAM.C"
  39  002D  0F01        	mov a,1
  39  002E  0300     R  	add a,_timer_load[0]
  39  002F  0080     E  	mov rb,a
  39  0030  0F00        	mov a,0
  39  0031  1300     R  	adc a,_timer_load[1]
  39  0032  0080     E  	mov rc,a
  39  0033  0700     E  	mov a,rb
  39  0034  0080     R  	mov _timer_load[0],a
  39  0035  0700     E  	mov a,rc
  39  0036  0080     R  	mov _timer_load[1],a
  41  0037              #line 41 "c:\users\barby\desktop\company_work\ronic\jaroo_kpg_bs83b08a_2t\jaroo_kpg_bs83b08a_2t_code\20160607_libv413\USER_PROGRAM\USER_PROGRAM.C"
  41  0037  0700     R  	mov a,_jaroo[1]
  41  0038  0080     E  	mov rd,a
  41  0039  1F00     E  	clr re
  41  003A  0700     E  	mov a,rb
  41  003B  0200     E  	sub a,rd
  41  003C  0700     E  	mov a,rc
  41  003D  1200     E  	sbc a,re
  41  003E  1185        	swap acc
  41  003F  040A        	xor a,status
  41  0040  3985        	snz acc.3
  41  0041  2800     R  	jmp _L5
  42  0042              #line 42 "c:\users\barby\desktop\company_work\ronic\jaroo_kpg_bs83b08a_2t\jaroo_kpg_bs83b08a_2t_code\20160607_libv413\USER_PROGRAM\USER_PROGRAM.C"
  42  0042  3094        	set [20].1
  42  0043  2800     R  	jmp _L1
  42  0044              _L5:
  44  0044              #line 44 "c:\users\barby\desktop\company_work\ronic\jaroo_kpg_bs83b08a_2t\jaroo_kpg_bs83b08a_2t_code\20160607_libv413\USER_PROGRAM\USER_PROGRAM.C"
  44  0044  0700     E  	mov a,rb
  44  0045  0400     E  	xor a,rd
  44  0046  0700     E  	mov a,rc
  44  0047  3D0A        	sz z
  44  0048  0400     E  	xor a,re
  44  0049  390A        	snz z
  44  004A  2800     R  	jmp _L7
  44  004B  3494        	clr [20].1
  44  004C  2800     R  	jmp _L1
  44  004D              _L7:
  45  004D              #line 45 "c:\users\barby\desktop\company_work\ronic\jaroo_kpg_bs83b08a_2t\jaroo_kpg_bs83b08a_2t_code\20160607_libv413\USER_PROGRAM\USER_PROGRAM.C"
  45  004D  3094        	set [20].1
  47  004E              #line 47 "c:\users\barby\desktop\company_work\ronic\jaroo_kpg_bs83b08a_2t\jaroo_kpg_bs83b08a_2t_code\20160607_libv413\USER_PROGRAM\USER_PROGRAM.C"
  47  004E  1F00     R  	clr _timer_load[0]
  47  004F  1F00     R  	clr _timer_load[1]
  48  0050              #line 48 "c:\users\barby\desktop\company_work\ronic\jaroo_kpg_bs83b08a_2t\jaroo_kpg_bs83b08a_2t_code\20160607_libv413\USER_PROGRAM\USER_PROGRAM.C"
  48  0050  361D        	clr [29].4
  48  0051              _L1:
  48  0051  0700     E  	mov a,r2
  48  0052  008A        	mov status,a
  48  0053  0700     E  	mov a,r1
  48  0054  0004        	reti
"File: USER_PROGRAM.C  Assembler  Version HGASM0202      Page 4

  48  0055              _timer endp
  48  0055              
  48  0055              #line 48 "c:\users\barby\desktop\company_work\ronic\jaroo_kpg_bs83b08a_2t\jaroo_kpg_bs83b08a_2t_code\20160607_libv413\USER_PROGRAM\USER_PROGRAM.C"
  48  0055              #pragma debug scope 1 1
  48  0055              public _ex_interupt
  48  0055              #pragma debug scope 4 1
  54  0055              #line 54 "c:\users\barby\desktop\company_work\ronic\jaroo_kpg_bs83b08a_2t\jaroo_kpg_bs83b08a_2t_code\20160607_libv413\USER_PROGRAM\USER_PROGRAM.C"
  54  0000              @ex_interupt_code .section at 4 'code'
  54  0000  0080     E  	mov r1,a
  54  0001  070A        	mov a,status
  54  0002  0080     E  	mov r2,a
  54  0003  2800     R  	jmp _ex_interupt
  54  0004              #pragma debug scope 1 1
  54  0004              @dummy4 endp
  54  0004              #pragma debug scope 5 1
  54  0000              _ex_interupt .section 'code'
  54  0000              _ex_interupt proc
  56  0000              #line 56 "c:\users\barby\desktop\company_work\ronic\jaroo_kpg_bs83b08a_2t\jaroo_kpg_bs83b08a_2t_code\20160607_libv413\USER_PROGRAM\USER_PROGRAM.C"
  56  0000  0FF9        	mov a,249
  56  0001  009C        	mov [28],a
  57  0002              #line 57 "c:\users\barby\desktop\company_work\ronic\jaroo_kpg_bs83b08a_2t\jaroo_kpg_bs83b08a_2t_code\20160607_libv413\USER_PROGRAM\USER_PROGRAM.C"
  57  0002  321D        	set [29].4
  57  0003  0700     E  	mov a,r2
  57  0004  008A        	mov status,a
  57  0005  0700     E  	mov a,r1
  57  0006  0004        	reti
  57  0007              _ex_interupt endp
  57  0007              
  57  0007              #line 57 "c:\users\barby\desktop\company_work\ronic\jaroo_kpg_bs83b08a_2t\jaroo_kpg_bs83b08a_2t_code\20160607_libv413\USER_PROGRAM\USER_PROGRAM.C"
  57  0007              #pragma debug scope 1 1
  57  0007              public _USER_PROGRAM
  57  0007              #pragma debug scope 6 1
  74  0007              #line 74 "c:\users\barby\desktop\company_work\ronic\jaroo_kpg_bs83b08a_2t\jaroo_kpg_bs83b08a_2t_code\20160607_libv413\USER_PROGRAM\USER_PROGRAM.C"
  74  0000              _USER_PROGRAM .section 'code'
  74  0000              _USER_PROGRAM proc
  76  0000              #line 76 "c:\users\barby\desktop\company_work\ronic\jaroo_kpg_bs83b08a_2t\jaroo_kpg_bs83b08a_2t_code\20160607_libv413\USER_PROGRAM\USER_PROGRAM.C"
  76  0000  2000     E  	call _GET_KEY_BITMAP
  78  0001              #line 78 "c:\users\barby\desktop\company_work\ronic\jaroo_kpg_bs83b08a_2t\jaroo_kpg_bs83b08a_2t_code\20160607_libv413\USER_PROGRAM\USER_PROGRAM.C"
  78  0001  2000     E  	call _touch_led_manage
  78  0002  0003        	ret
  78  0003              _USER_PROGRAM endp
  78  0003              #line 78 "c:\users\barby\desktop\company_work\ronic\jaroo_kpg_bs83b08a_2t\jaroo_kpg_bs83b08a_2t_code\20160607_libv413\USER_PROGRAM\USER_PROGRAM.C"
  78  0003              #pragma debug scope 1 1
  78  0003              ___pac equ [21]
  78  0003              public _ini_main
  78  0003              #pragma debug scope 7 1
  84  0003              #line 84 "c:\users\barby\desktop\company_work\ronic\jaroo_kpg_bs83b08a_2t\jaroo_kpg_bs83b08a_2t_code\20160607_libv413\USER_PROGRAM\USER_PROGRAM.C"
  84  0000              _ini_main .section 'code'
  84  0000              _ini_main proc
  86  0000              #line 86 "c:\users\barby\desktop\company_work\ronic\jaroo_kpg_bs83b08a_2t\jaroo_kpg_bs83b08a_2t_code\20160607_libv413\USER_PROGRAM\USER_PROGRAM.C"
  86  0000  2000     E  	call _timer_ini
  87  0001              #line 87 "c:\users\barby\desktop\company_work\ronic\jaroo_kpg_bs83b08a_2t\jaroo_kpg_bs83b08a_2t_code\20160607_libv413\USER_PROGRAM\USER_PROGRAM.C"
  87  0001  2000     E  	call _timer_interupt_enable
  88  0002              #line 88 "c:\users\barby\desktop\company_work\ronic\jaroo_kpg_bs83b08a_2t\jaroo_kpg_bs83b08a_2t_code\20160607_libv413\USER_PROGRAM\USER_PROGRAM.C"
  88  0002  361D        	clr [29].4
  90  0003              #line 90 "c:\users\barby\desktop\company_work\ronic\jaroo_kpg_bs83b08a_2t\jaroo_kpg_bs83b08a_2t_code\20160607_libv413\USER_PROGRAM\USER_PROGRAM.C"
  90  0003  2000     E  	call _EX_INT_init
  92  0004              #line 92 "c:\users\barby\desktop\company_work\ronic\jaroo_kpg_bs83b08a_2t\jaroo_kpg_bs83b08a_2t_code\20160607_libv413\USER_PROGRAM\USER_PROGRAM.C"
  92  0004  2000     E  	call _GPIO_ini
  94  0005              #line 94 "c:\users\barby\desktop\company_work\ronic\jaroo_kpg_bs83b08a_2t\jaroo_kpg_bs83b08a_2t_code\20160607_libv413\USER_PROGRAM\USER_PROGRAM.C"
"File: USER_PROGRAM.C  Assembler  Version HGASM0202      Page 5

  94  0005  0F03        	mov a,3
  94  0006  0080     R  	mov _jaroo[0],a
  96  0007              #line 96 "c:\users\barby\desktop\company_work\ronic\jaroo_kpg_bs83b08a_2t\jaroo_kpg_bs83b08a_2t_code\20160607_libv413\USER_PROGRAM\USER_PROGRAM.C"
  96  0007  3495        	clr [21].1
  96  0008  0003        	ret
  96  0009              _ini_main endp
  96  0009              #line 96 "c:\users\barby\desktop\company_work\ronic\jaroo_kpg_bs83b08a_2t\jaroo_kpg_bs83b08a_2t_code\20160607_libv413\USER_PROGRAM\USER_PROGRAM.C"
  96  0009              #pragma debug scope 1 1
  96  0009              public _USER_PROGRAM_INITIAL
  96  0009              #pragma debug scope 8 1
  67  0009              #line 67 "c:\users\barby\desktop\company_work\ronic\jaroo_kpg_bs83b08a_2t\jaroo_kpg_bs83b08a_2t_code\20160607_libv413\USER_PROGRAM\USER_PROGRAM.C"
  67  0000              _USER_PROGRAM_INITIAL .section 'code'
  67  0000              _USER_PROGRAM_INITIAL proc
  68  0000              #line 68 "c:\users\barby\desktop\company_work\ronic\jaroo_kpg_bs83b08a_2t\jaroo_kpg_bs83b08a_2t_code\20160607_libv413\USER_PROGRAM\USER_PROGRAM.C"
  68  0000  2000     R  	call _ini_main
  68  0001  0003        	ret
  68  0002              _USER_PROGRAM_INITIAL endp
  68  0002              #line 68 "c:\users\barby\desktop\company_work\ronic\jaroo_kpg_bs83b08a_2t\jaroo_kpg_bs83b08a_2t_code\20160607_libv413\USER_PROGRAM\USER_PROGRAM.C"
  68  0002              #pragma debug scope 1 1
  68  0002              public _timer_load
  68  0000              @HCCINIT	.section 'data'
  26  0000              #line 26 "c:\users\barby\desktop\company_work\ronic\jaroo_kpg_bs83b08a_2t\jaroo_kpg_bs83b08a_2t_code\20160607_libv413\USER_PROGRAM\USER_PROGRAM.C"
  26  0000              @HCCINIT .section 'data'
  26  0000              _timer_load label byte
  26  0000              #pragma debug variable 11 1 _timer_load "timer_load"
  26  0000              	db 0
  26  0000              @ROMDATA_BASE .section inpage 'code'
  26  0000              	db 0
  26  0001              @HCCINIT .section 'data'
  26  0001              	db 0
  26  0001              @ROMDATA_BASE .section inpage 'code'
  26  0001              	db 0
  26  0002              @HCCINIT .section 'data'
  26  0002              public _i
  12  0002              #line 12 "c:\users\barby\desktop\company_work\ronic\jaroo_kpg_bs83b08a_2t\jaroo_kpg_bs83b08a_2t_code\20160607_libv413\USER_PROGRAM\USER_PROGRAM.C"
  12  0002              @HCCINIT .section 'data'
  12  0002              _i label byte
  12  0002              #pragma debug variable 8 1 _i "i"
  12  0002              	db 0
  12  0001              @ROMDATA_BASE .section inpage 'code'
  12  0001              	db 0
  12  0003              @HCCINIT .section 'data'
  10  0003              #line 10 "c:\users\barby\desktop\company_work\ronic\jaroo_kpg_bs83b08a_2t\jaroo_kpg_bs83b08a_2t_code\20160607_libv413\USER_PROGRAM\USER_PROGRAM.C"
  10  0003              public _touch
  10  0000              @HCCINIT0 .section 'data'
  10  0000  0003[       _touch	db 3 dup(0)
            00
            ]
  10  0003              #pragma debug struct_end
  10  0003              #pragma debug struct_end
  10  0003              #pragma debug variable 42 1 _touch "touch"
  10  0003              
  10  0003              @HCCINIT .section 'data'
   9  0003              #line 9 "c:\users\barby\desktop\company_work\ronic\jaroo_kpg_bs83b08a_2t\jaroo_kpg_bs83b08a_2t_code\20160607_libv413\USER_PROGRAM\USER_PROGRAM.C"
   9  0003              public _jaroo
   9  0003              @HCCINIT0 .section 'data'
   9  0003  0004[       _jaroo	db 4 dup(0)
            00
            ]
   9  0007              #pragma debug struct_end
"File: USER_PROGRAM.C  Assembler  Version HGASM0202      Page 6

   9  0007              #pragma debug struct_end
   9  0007              #pragma debug variable 43 1 _jaroo "jaroo"
   9  0007              
   9  0003              @HCCINIT .section 'data'
   9  0003              #pragma debug struct_end
   9  0003              #pragma debug struct_end
   9  0003              #pragma debug union_end
   9  0003              #pragma debug union_end
   9  0003              #pragma debug variable 45 1 ___pa "__pa" 1
   9  0003              #pragma debug struct_end
   9  0003              #pragma debug struct_end
   9  0003              #pragma debug union_end
   9  0003              #pragma debug union_end
   9  0003              #pragma debug variable 47 1 ___pac "__pac" 1
   9  0003              #pragma debug variable 8 1 ___tmr "__tmr" 1
   9  0003              #pragma debug struct_end
   9  0003              #pragma debug struct_end
   9  0003              #pragma debug union_end
   9  0003              #pragma debug union_end
   9  0003              #pragma debug variable 49 1 ___tmrc "__tmrc" 1
   9  0003              extern r1:byte
   9  0003              extern r2:byte
   9  0003              extern _GET_KEY_BITMAP:near
   9  0003              extern _touch_led_manage:near
   9  0003              extern _timer_ini:near
   9  0003              extern _timer_interupt_enable:near
   9  0003              extern _EX_INT_init:near
   9  0003              extern _GPIO_ini:near
   9  0003              
   9  0003              ; 
   9  0003              ; Generated by holtek-gcc v3.19, Mon Aug 01 12:38:27 2022
   9  0003              ; Rebuild 718
   9  0003              ; end of file


        0 Errors, 0