"File: USER_PROGRAM.C  Assembler  Version HGASM0202      Page 1


   1  0000              ; Generated by holtek-gcc v3.19, Tue Aug 02 17:10:37 2022
   2  0000              ; 
   3  0000              ; Configuration:
   4  0000              ;       without long instruction
   5  0000              ;       Single ROM, Multi-RAM
   6  0000              ;       bits_per_rom_unit:16
   7  0000              ;       with mp1
   8  0000              ;       with tbhp, address(0x9)
   9  0000              ;          Use tabrd-const
  10  0000              ;       
  11  0000              ;       
  12  0000              ;       
  13  0000              ; use 'tabrdc' instead of 'tabrd'
  14  0000              ;       
  15  0000              
  16  0000              #pragma translator "holtek-gcc 4.6.4" "3.19" "build 20130711"
  17  0000              ; Rebuild 718
  18  0000              
  19  0000              ir equ [2]
  20  0000              mp equ [3]
  21  0000              sbp equ [1]
  22  0000              acc equ [5]
  23  0000              bp equ [4]
  24  0000              tblp equ [7]
  25  0000              tbhp equ [9]
  26  0000              status equ [10]
  27  0000              c equ [10].0
  28  0000              ac equ [10].1
  29  0000              z equ [10].2
  30  0000              ov equ [10].3
  31  0000              intc equ [11]
  32  0000              
  33  0000              extern ra:byte
  34  0000              extern rb:byte
  35  0000              extern rc:byte
  36  0000              extern rd:byte
  37  0000              extern re:byte
  38  0000              extern rf:byte
  39  0000              extern rg:byte
  40  0000              extern rh:byte
  41  0000              extern _Crom2Prom:near
  42  0000              extern _Crom2PromNext:near
  43  0000              
  44  0000              RAMBANK 0 @HCCINIT, @HCCINIT0
  45  0000              
  46  0000              RAMBANK 0 @BITDATASEC, @BITDATASEC1
  47  0000              @HCCINIT	.section 'data'
  48  0000              @HCCINIT0	.section 'data'
  49  0000              @BITDATASEC	 .section 'data'
  50  0000              @BITDATASEC1	 .section 'data'
  51  0000              
  52  0000              #pragma debug scope 1 1
  53  0000              	extern __DELAY3:near
  54  0000              	extern __DELAYX3:near
  55  0000              	extern __DELAYX6:near
  56  0000              	extern __DELAYY5:near
  57  0000              	extern __DELAYY3:near
  58  0000              	extern _builtin_holtek_delay_2:byte
  59  0000              ___tmr equ [28]
"File: USER_PROGRAM.ASM  Assembler  Version HGASM0202      Page 2

  60  0000              ___tmrc equ [29]
  61  0000              ___pa equ [20]
  62  0000              public _timer
  63  0000              #pragma debug scope 2 1

  30  0000              #line 30 "C:\Users\barby\Desktop\Company_work\Ronic\jaroo_KPG_BS83B08A_2T\jaroo_KPG_BS83B08A_2T_CODE\20160607_LIBV413\USER_PROGRAM\USER_PROGRAM.C"
  30  0000              @timer_code .section at 12 'code'
  30  0000  0080     E  	mov r1,a
  30  0001  070A        	mov a,status
  30  0002  0080     E  	mov r2,a
  30  0003  2800     R  	jmp _timer
  30  0004              #pragma debug scope 1 1
  30  0004              @dummy12 endp
  30  0004              #pragma debug scope 3 1
  30  0000              _timer .section 'code'
  30  0000              _timer proc
  32  0000              #line 32 "C:\Users\barby\Desktop\Company_work\Ronic\jaroo_KPG_BS83B08A_2T\jaroo_KPG_BS83B08A_2T_CODE\20160607_LIBV413\USER_PROGRAM\USER_PROGRAM.C"
  32  0000  0FF9        	mov a,249
  32  0001  009C        	mov [28],a
  33  0002              #line 33 "C:\Users\barby\Desktop\Company_work\Ronic\jaroo_KPG_BS83B08A_2T\jaroo_KPG_BS83B08A_2T_CODE\20160607_LIBV413\USER_PROGRAM\USER_PROGRAM.C"
  33  0002  321D        	set [29].4
  35  0003              #line 35 "C:\Users\barby\Desktop\Company_work\Ronic\jaroo_KPG_BS83B08A_2T\jaroo_KPG_BS83B08A_2T_CODE\20160607_LIBV413\USER_PROGRAM\USER_PROGRAM.C"
  35  0003  0700     R  	mov a,_jaroo[3]
  35  0004  0080     E  	mov ra,a
  35  0005  0700     E  	mov a,ra
  35  0006  0A96        	sub a,150
  35  0007  390A        	snz z
  35  0008  2800     R  	jmp _L2
  35  0009              #line 35 "C:\Users\barby\Desktop\Company_work\Ronic\jaroo_KPG_BS83B08A_2T\jaroo_KPG_BS83B08A_2T_CODE\20160607_LIBV413\USER_PROGRAM\USER_PROGRAM.C"
  35  0009  1F00     R  	clr _jaroo[3]
  36  000A              #line 36 "C:\Users\barby\Desktop\Company_work\Ronic\jaroo_KPG_BS83B08A_2T\jaroo_KPG_BS83B08A_2T_CODE\20160607_LIBV413\USER_PROGRAM\USER_PROGRAM.C"
  36  000A  0700     R  	mov a,_jaroo[1]
  36  000B  0080     E  	mov ra,a
  36  000C  0700     E  	mov a,ra
  36  000D  0080     E  	mov rd,a
  36  000E  1F00     E  	clr re
  36  000F  0700     R  	mov a,_jaroo[2]
  36  0010  0080     E  	mov rb,a
  36  0011  1F00     E  	clr rc
  36  0012  0F64        	mov a,100
  36  0013  0280     E  	subm a,rb
  36  0014  0F00        	mov a,0
  36  0015  1280     E  	sbcm a,rc
  36  0016  0700     E  	mov a,rd
  36  0017  0200     E  	sub a,rb
  36  0018  0700     E  	mov a,re
  36  0019  1200     E  	sbc a,rc
  36  001A  1185        	swap acc
  36  001B  040A        	xor a,status
  36  001C  3985        	snz acc.3
  36  001D  2800     R  	jmp _L3
  36  001E  1400     E  	inca ra
  36  001F  0080     R  	mov _jaroo[1],a
  36  0020  2800     R  	jmp _L4
  36  0021              _L3:
  37  0021              #line 37 "C:\Users\barby\Desktop\Company_work\Ronic\jaroo_KPG_BS83B08A_2T\jaroo_KPG_BS83B08A_2T_CODE\20160607_LIBV413\USER_PROGRAM\USER_PROGRAM.C"
  37  0021  0700     E  	mov a,rb
  37  0022  0200     E  	sub a,rd
  37  0023  0700     E  	mov a,rc
  37  0024  1200     E  	sbc a,re
"File: USER_PROGRAM.C  Assembler  Version HGASM0202      Page 3

  37  0025  1185        	swap acc
  37  0026  040A        	xor a,status
  37  0027  3985        	snz acc.3
  37  0028  2800     R  	jmp _L4
  37  0029  1500     E  	deca ra
  37  002A  0080     R  	mov _jaroo[1],a
  37  002B  2800     R  	jmp _L4
  37  002C              _L2:
  39  002C              #line 39 "C:\Users\barby\Desktop\Company_work\Ronic\jaroo_KPG_BS83B08A_2T\jaroo_KPG_BS83B08A_2T_CODE\20160607_LIBV413\USER_PROGRAM\USER_PROGRAM.C"
  39  002C  1400     E  	inca ra
  39  002D  0080     R  	mov _jaroo[3],a
  39  002E              _L4:
  41  002E              #line 41 "C:\Users\barby\Desktop\Company_work\Ronic\jaroo_KPG_BS83B08A_2T\jaroo_KPG_BS83B08A_2T_CODE\20160607_LIBV413\USER_PROGRAM\USER_PROGRAM.C"
  41  002E  0F01        	mov a,1
  41  002F  0300     R  	add a,_timer_load[0]
  41  0030  0080     E  	mov rb,a
  41  0031  0F00        	mov a,0
  41  0032  1300     R  	adc a,_timer_load[1]
  41  0033  0080     E  	mov rc,a
  41  0034  0700     E  	mov a,rb
  41  0035  0080     R  	mov _timer_load[0],a
  41  0036  0700     E  	mov a,rc
  41  0037  0080     R  	mov _timer_load[1],a
  43  0038              #line 43 "C:\Users\barby\Desktop\Company_work\Ronic\jaroo_KPG_BS83B08A_2T\jaroo_KPG_BS83B08A_2T_CODE\20160607_LIBV413\USER_PROGRAM\USER_PROGRAM.C"
  43  0038  0700     R  	mov a,_jaroo[1]
  43  0039  0080     E  	mov rd,a
  43  003A  1F00     E  	clr re
  43  003B  0700     E  	mov a,rb
  43  003C  0200     E  	sub a,rd
  43  003D  0700     E  	mov a,rc
  43  003E  1200     E  	sbc a,re
  43  003F  1185        	swap acc
  43  0040  040A        	xor a,status
  43  0041  3985        	snz acc.3
  43  0042  2800     R  	jmp _L5
  44  0043              #line 44 "C:\Users\barby\Desktop\Company_work\Ronic\jaroo_KPG_BS83B08A_2T\jaroo_KPG_BS83B08A_2T_CODE\20160607_LIBV413\USER_PROGRAM\USER_PROGRAM.C"
  44  0043  3494        	clr [20].1
  44  0044  2800     R  	jmp _L1
  44  0045              _L5:
  46  0045              #line 46 "C:\Users\barby\Desktop\Company_work\Ronic\jaroo_KPG_BS83B08A_2T\jaroo_KPG_BS83B08A_2T_CODE\20160607_LIBV413\USER_PROGRAM\USER_PROGRAM.C"
  46  0045  0700     E  	mov a,rb
  46  0046  0400     E  	xor a,rd
  46  0047  0700     E  	mov a,rc
  46  0048  3D0A        	sz z
  46  0049  0400     E  	xor a,re
  46  004A  390A        	snz z
  46  004B  2800     R  	jmp _L7
  46  004C  3094        	set [20].1
  46  004D  2800     R  	jmp _L1
  46  004E              _L7:
  47  004E              #line 47 "C:\Users\barby\Desktop\Company_work\Ronic\jaroo_KPG_BS83B08A_2T\jaroo_KPG_BS83B08A_2T_CODE\20160607_LIBV413\USER_PROGRAM\USER_PROGRAM.C"
  47  004E  3494        	clr [20].1
  49  004F              #line 49 "C:\Users\barby\Desktop\Company_work\Ronic\jaroo_KPG_BS83B08A_2T\jaroo_KPG_BS83B08A_2T_CODE\20160607_LIBV413\USER_PROGRAM\USER_PROGRAM.C"
  49  004F  1F00     R  	clr _timer_load[0]
  49  0050  1F00     R  	clr _timer_load[1]
  50  0051              #line 50 "C:\Users\barby\Desktop\Company_work\Ronic\jaroo_KPG_BS83B08A_2T\jaroo_KPG_BS83B08A_2T_CODE\20160607_LIBV413\USER_PROGRAM\USER_PROGRAM.C"
  50  0051  361D        	clr [29].4
  50  0052              _L1:
  50  0052  0700     E  	mov a,r2
  50  0053  008A        	mov status,a
"File: USER_PROGRAM.C  Assembler  Version HGASM0202      Page 4

  50  0054  0700     E  	mov a,r1
  50  0055  0004        	reti
  50  0056              _timer endp
  50  0056              
  50  0056              #line 50 "C:\Users\barby\Desktop\Company_work\Ronic\jaroo_KPG_BS83B08A_2T\jaroo_KPG_BS83B08A_2T_CODE\20160607_LIBV413\USER_PROGRAM\USER_PROGRAM.C"
  50  0056              #pragma debug scope 1 1
  50  0056              public _ex_interupt
  50  0056              #pragma debug scope 4 1
  55  0056              #line 55 "C:\Users\barby\Desktop\Company_work\Ronic\jaroo_KPG_BS83B08A_2T\jaroo_KPG_BS83B08A_2T_CODE\20160607_LIBV413\USER_PROGRAM\USER_PROGRAM.C"
  55  0000              @ex_interupt_code .section at 4 'code'
  55  0000  0080     E  	mov r1,a
  55  0001  070A        	mov a,status
  55  0002  0080     E  	mov r2,a
  55  0003  2800     R  	jmp _ex_interupt
  55  0004              #pragma debug scope 1 1
  55  0004              @dummy4 endp
  55  0004              #pragma debug scope 5 1
  55  0000              _ex_interupt .section 'code'
  55  0000              _ex_interupt proc
  57  0000              #line 57 "C:\Users\barby\Desktop\Company_work\Ronic\jaroo_KPG_BS83B08A_2T\jaroo_KPG_BS83B08A_2T_CODE\20160607_LIBV413\USER_PROGRAM\USER_PROGRAM.C"
  57  0000  0FF9        	mov a,249
  57  0001  009C        	mov [28],a
  58  0002              #line 58 "C:\Users\barby\Desktop\Company_work\Ronic\jaroo_KPG_BS83B08A_2T\jaroo_KPG_BS83B08A_2T_CODE\20160607_LIBV413\USER_PROGRAM\USER_PROGRAM.C"
  58  0002  321D        	set [29].4
  58  0003  0700     E  	mov a,r2
  58  0004  008A        	mov status,a
  58  0005  0700     E  	mov a,r1
  58  0006  0004        	reti
  58  0007              _ex_interupt endp
  58  0007              
  58  0007              #line 58 "C:\Users\barby\Desktop\Company_work\Ronic\jaroo_KPG_BS83B08A_2T\jaroo_KPG_BS83B08A_2T_CODE\20160607_LIBV413\USER_PROGRAM\USER_PROGRAM.C"
  58  0007              #pragma debug scope 1 1
  58  0007              public _USER_PROGRAM
  58  0007              #pragma debug scope 6 1
  75  0007              #line 75 "C:\Users\barby\Desktop\Company_work\Ronic\jaroo_KPG_BS83B08A_2T\jaroo_KPG_BS83B08A_2T_CODE\20160607_LIBV413\USER_PROGRAM\USER_PROGRAM.C"
  75  0000              _USER_PROGRAM .section 'code'
  75  0000              _USER_PROGRAM proc
  77  0000              #line 77 "C:\Users\barby\Desktop\Company_work\Ronic\jaroo_KPG_BS83B08A_2T\jaroo_KPG_BS83B08A_2T_CODE\20160607_LIBV413\USER_PROGRAM\USER_PROGRAM.C"
  77  0000  2000     E  	call _GET_KEY_BITMAP
  79  0001              #line 79 "C:\Users\barby\Desktop\Company_work\Ronic\jaroo_KPG_BS83B08A_2T\jaroo_KPG_BS83B08A_2T_CODE\20160607_LIBV413\USER_PROGRAM\USER_PROGRAM.C"
  79  0001  2000     E  	call _touch_led_manage
  79  0002  0003        	ret
  79  0003              _USER_PROGRAM endp
  79  0003              #line 79 "C:\Users\barby\Desktop\Company_work\Ronic\jaroo_KPG_BS83B08A_2T\jaroo_KPG_BS83B08A_2T_CODE\20160607_LIBV413\USER_PROGRAM\USER_PROGRAM.C"
  79  0003              #pragma debug scope 1 1
  79  0003              ___pac equ [21]
  79  0003              public _ini_main
  79  0003              #pragma debug scope 7 1
  85  0003              #line 85 "C:\Users\barby\Desktop\Company_work\Ronic\jaroo_KPG_BS83B08A_2T\jaroo_KPG_BS83B08A_2T_CODE\20160607_LIBV413\USER_PROGRAM\USER_PROGRAM.C"
  85  0000              _ini_main .section 'code'
  85  0000              _ini_main proc
  87  0000              #line 87 "C:\Users\barby\Desktop\Company_work\Ronic\jaroo_KPG_BS83B08A_2T\jaroo_KPG_BS83B08A_2T_CODE\20160607_LIBV413\USER_PROGRAM\USER_PROGRAM.C"
  87  0000  0F03        	mov a,3
  87  0001  0080     R  	mov _jaroo[0],a
  89  0002              #line 89 "C:\Users\barby\Desktop\Company_work\Ronic\jaroo_KPG_BS83B08A_2T\jaroo_KPG_BS83B08A_2T_CODE\20160607_LIBV413\USER_PROGRAM\USER_PROGRAM.C"
  89  0002  3495        	clr [21].1
  90  0003              #line 90 "C:\Users\barby\Desktop\Company_work\Ronic\jaroo_KPG_BS83B08A_2T\jaroo_KPG_BS83B08A_2T_CODE\20160607_LIBV413\USER_PROGRAM\USER_PROGRAM.C"
  90  0003  3494        	clr [20].1
  92  0004              #line 92 "C:\Users\barby\Desktop\Company_work\Ronic\jaroo_KPG_BS83B08A_2T\jaroo_KPG_BS83B08A_2T_CODE\20160607_LIBV413\USER_PROGRAM\USER_PROGRAM.C"
  92  0004  2000     E  	call _timer_ini
"File: USER_PROGRAM.C  Assembler  Version HGASM0202      Page 5

  93  0005              #line 93 "C:\Users\barby\Desktop\Company_work\Ronic\jaroo_KPG_BS83B08A_2T\jaroo_KPG_BS83B08A_2T_CODE\20160607_LIBV413\USER_PROGRAM\USER_PROGRAM.C"
  93  0005  2000     E  	call _timer_interupt_enable
  94  0006              #line 94 "C:\Users\barby\Desktop\Company_work\Ronic\jaroo_KPG_BS83B08A_2T\jaroo_KPG_BS83B08A_2T_CODE\20160607_LIBV413\USER_PROGRAM\USER_PROGRAM.C"
  94  0006  361D        	clr [29].4
  96  0007              #line 96 "C:\Users\barby\Desktop\Company_work\Ronic\jaroo_KPG_BS83B08A_2T\jaroo_KPG_BS83B08A_2T_CODE\20160607_LIBV413\USER_PROGRAM\USER_PROGRAM.C"
  96  0007  2000     E  	call _EX_INT_init
  98  0008              #line 98 "C:\Users\barby\Desktop\Company_work\Ronic\jaroo_KPG_BS83B08A_2T\jaroo_KPG_BS83B08A_2T_CODE\20160607_LIBV413\USER_PROGRAM\USER_PROGRAM.C"
  98  0008  2000     E  	call _GPIO_ini
 100  0009              #line 100 "C:\Users\barby\Desktop\Company_work\Ronic\jaroo_KPG_BS83B08A_2T\jaroo_KPG_BS83B08A_2T_CODE\20160607_LIBV413\USER_PROGRAM\USER_PROGRAM.C"
 100  0009  0F5A        	mov a,90
 100  000A  0080     R  	mov _jaroo[1],a
 100  000B  0003        	ret
 100  000C              _ini_main endp
 100  000C              #line 100 "C:\Users\barby\Desktop\Company_work\Ronic\jaroo_KPG_BS83B08A_2T\jaroo_KPG_BS83B08A_2T_CODE\20160607_LIBV413\USER_PROGRAM\USER_PROGRAM.C"
 100  000C              #pragma debug scope 1 1
 100  000C              public _USER_PROGRAM_INITIAL
 100  000C              #pragma debug scope 8 1
  68  000C              #line 68 "C:\Users\barby\Desktop\Company_work\Ronic\jaroo_KPG_BS83B08A_2T\jaroo_KPG_BS83B08A_2T_CODE\20160607_LIBV413\USER_PROGRAM\USER_PROGRAM.C"
  68  0000              _USER_PROGRAM_INITIAL .section 'code'
  68  0000              _USER_PROGRAM_INITIAL proc
  69  0000              #line 69 "C:\Users\barby\Desktop\Company_work\Ronic\jaroo_KPG_BS83B08A_2T\jaroo_KPG_BS83B08A_2T_CODE\20160607_LIBV413\USER_PROGRAM\USER_PROGRAM.C"
  69  0000  2000     R  	call _ini_main
  69  0001  0003        	ret
  69  0002              _USER_PROGRAM_INITIAL endp
  69  0002              #line 69 "C:\Users\barby\Desktop\Company_work\Ronic\jaroo_KPG_BS83B08A_2T\jaroo_KPG_BS83B08A_2T_CODE\20160607_LIBV413\USER_PROGRAM\USER_PROGRAM.C"
  69  0002              #pragma debug scope 1 1
  69  0002              public _timer_load
  69  0000              @HCCINIT	.section 'data'
  28  0000              #line 28 "C:\Users\barby\Desktop\Company_work\Ronic\jaroo_KPG_BS83B08A_2T\jaroo_KPG_BS83B08A_2T_CODE\20160607_LIBV413\USER_PROGRAM\USER_PROGRAM.C"
  28  0000              @HCCINIT .section 'data'
  28  0000              _timer_load label byte
  28  0000              #pragma debug variable 11 1 _timer_load "timer_load"
  28  0000              	db 0
  28  0000              @ROMDATA_BASE .section inpage 'code'
  28  0000              	db 0
  28  0001              @HCCINIT .section 'data'
  28  0001              	db 0
  28  0001              @ROMDATA_BASE .section inpage 'code'
  28  0001              	db 0
  28  0002              @HCCINIT .section 'data'
  28  0002              public _i
  13  0002              #line 13 "C:\Users\barby\Desktop\Company_work\Ronic\jaroo_KPG_BS83B08A_2T\jaroo_KPG_BS83B08A_2T_CODE\20160607_LIBV413\USER_PROGRAM\USER_PROGRAM.C"
  13  0002              @HCCINIT .section 'data'
  13  0002              _i label byte
  13  0002              #pragma debug variable 8 1 _i "i"
  13  0002              	db 0
  13  0001              @ROMDATA_BASE .section inpage 'code'
  13  0001              	db 0
  13  0003              @HCCINIT .section 'data'
  11  0003              #line 11 "C:\Users\barby\Desktop\Company_work\Ronic\jaroo_KPG_BS83B08A_2T\jaroo_KPG_BS83B08A_2T_CODE\20160607_LIBV413\USER_PROGRAM\USER_PROGRAM.C"
  11  0003              public _touch
  11  0000              @HCCINIT0 .section 'data'
  11  0000  0003[       _touch	db 3 dup(0)
            00
            ]
  11  0003              #pragma debug struct_end
  11  0003              #pragma debug struct_end
  11  0003              #pragma debug variable 42 1 _touch "touch"
  11  0003              
  11  0003              @HCCINIT .section 'data'
"File: USER_PROGRAM.C  Assembler  Version HGASM0202      Page 6

  10  0003              #line 10 "C:\Users\barby\Desktop\Company_work\Ronic\jaroo_KPG_BS83B08A_2T\jaroo_KPG_BS83B08A_2T_CODE\20160607_LIBV413\USER_PROGRAM\USER_PROGRAM.C"
  10  0003              public _jaroo
  10  0003              @HCCINIT0 .section 'data'
  10  0003  0004[       _jaroo	db 4 dup(0)
            00
            ]
  10  0007              #pragma debug struct_end
  10  0007              #pragma debug struct_end
  10  0007              #pragma debug variable 43 1 _jaroo "jaroo"
  10  0007              
  10  0003              @HCCINIT .section 'data'
  10  0003              #pragma debug struct_end
  10  0003              #pragma debug struct_end
  10  0003              #pragma debug union_end
  10  0003              #pragma debug union_end
  10  0003              #pragma debug variable 45 1 ___pa "__pa" 1
  10  0003              #pragma debug struct_end
  10  0003              #pragma debug struct_end
  10  0003              #pragma debug union_end
  10  0003              #pragma debug union_end
  10  0003              #pragma debug variable 47 1 ___pac "__pac" 1
  10  0003              #pragma debug variable 8 1 ___tmr "__tmr" 1
  10  0003              #pragma debug struct_end
  10  0003              #pragma debug struct_end
  10  0003              #pragma debug union_end
  10  0003              #pragma debug union_end
  10  0003              #pragma debug variable 49 1 ___tmrc "__tmrc" 1
  10  0003              extern r1:byte
  10  0003              extern r2:byte
  10  0003              extern _GET_KEY_BITMAP:near
  10  0003              extern _touch_led_manage:near
  10  0003              extern _timer_ini:near
  10  0003              extern _timer_interupt_enable:near
  10  0003              extern _EX_INT_init:near
  10  0003              extern _GPIO_ini:near
  10  0003              
  10  0003              ; 
  10  0003              ; Generated by holtek-gcc v3.19, Tue Aug 02 17:10:37 2022
  10  0003              ; Rebuild 718
  10  0003              ; end of file


        0 Errors, 0